Certificate:
    Data:
        Version: 3 (0x2)
        Serial Number:
            18:d0:b8:32:57:50:01:c6:ed:8f:d8:3f:18:31:a8:a9:fb:57:73:a7
        Signature Algorithm: sha256WithRSAEncryption
        Issuer: CN=localhost
        Validity
            Not Before: Sep 24 17:27:41 2025 GMT
            Not After : Sep 24 17:27:41 2026 GMT
        Subject: CN=localhost
        Subject Public Key Info:
            Public Key Algorithm: rsaEncryption
                Public-Key: (2048 bit)
                Modulus:
                    00:bb:0e:91:26:e2:d6:4f:60:87:d5:b4:3b:3e:62:
                    8a:e5:a4:b5:44:40:5d:3f:b2:63:a1:f1:30:03:0d:
                    94:49:87:25:9a:0d:27:27:f7:20:29:b3:12:87:c7:
                    72:51:da:5e:e1:d0:fb:62:8e:e8:61:b7:06:35:f7:
                    1b:4a:bb:00:72:c3:bd:86:41:3f:ac:e3:24:c7:7c:
                    9e:1f:23:bc:9a:ac:11:f4:d3:d6:39:82:b7:4c:09:
                    da:b8:74:1a:b2:dc:6b:51:c9:17:05:5d:0a:d9:28:
                    d4:2d:0b:73:47:5f:89:ab:ba:04:60:64:68:31:6e:
                    b0:5b:9e:b7:8f:f1:7e:12:d0:51:2b:c5:6c:54:dc:
                    ac:03:79:22:28:81:38:44:5d:e1:40:0f:b3:78:6a:
                    23:e3:88:87:f0:39:47:c7:9d:fc:37:bd:01:69:4e:
                    4c:fc:cc:59:92:94:44:71:61:ce:d4:82:bc:45:8d:
                    32:c8:73:a6:4a:8f:b5:80:b3:77:e7:11:6d:dc:74:
                    36:e3:94:a0:b8:45:88:95:79:38:c6:4e:d5:c2:52:
                    67:79:9e:c9:98:27:2f:71:05:95:95:db:e9:e8:a9:
                    4c:a7:70:38:14:c6:83:df:23:68:63:0c:ef:5d:f4:
                    9e:18:58:fa:b2:45:8d:07:83:e7:ba:80:5e:9f:01:
                    26:13
                Exponent: 65537 (0x10001)
        X509v3 extensions:
            X509v3 Subject Key Identifier: 
                26:2B:ED:F7:F3:CD:F7:D3:A0:20:4B:2E:24:16:5D:D0:2A:F0:43:13
            X509v3 Authority Key Identifier: 
                26:2B:ED:F7:F3:CD:F7:D3:A0:20:4B:2E:24:16:5D:D0:2A:F0:43:13
            X509v3 Basic Constraints: critical
                CA:TRUE
    Signature Algorithm: sha256WithRSAEncryption
    Signature Value:
        44:2e:10:d0:83:cf:57:49:e2:50:27:76:2f:d7:40:b1:c3:3a:
        2f:eb:e4:03:53:11:fa:91:b8:18:d1:d0:63:41:de:76:03:ae:
        dc:cb:08:db:d0:46:be:70:2d:d7:c5:ba:79:b6:6d:81:15:1e:
        57:59:31:67:96:b1:49:90:4b:a6:f4:11:f0:48:fb:c5:3e:7f:
        c0:15:36:74:0d:5c:5f:25:94:48:8c:68:90:ee:f5:10:74:5e:
        b3:8d:7f:db:95:f1:31:75:5b:b5:26:38:b6:bd:25:99:d5:21:
        d8:ad:f3:24:e3:bd:46:18:d0:90:76:4c:b5:4b:23:1b:4b:64:
        36:2b:b3:e3:c7:b8:bb:c8:d7:43:8e:7c:29:af:d0:ce:cc:13:
        69:37:a2:42:25:ba:0b:87:9c:3f:51:79:6f:09:8a:d5:2c:47:
        e0:7e:72:73:39:44:ee:19:7f:33:ea:6f:e9:c6:c8:87:63:7e:
        46:0e:24:e3:19:fe:cb:eb:7c:87:26:a1:e1:21:17:91:8a:32:
        9e:da:b9:44:99:d4:72:1d:08:c8:0e:a5:66:cc:7a:20:8a:b8:
        99:3b:95:9f:b0:cd:03:fc:46:2c:32:49:c8:4f:44:49:f8:90:
        55:32:80:5e:61:21:f3:3d:bc:bd:6f:a9:4d:94:a7:63:92:04:
        d5:68:63:af
-----BEGIN CERTIFICATE-----
MIIDCTCCAfGgAwIBAgIUGNC4MldQAcbtj9g/GDGoqftXc6cwDQYJKoZIhvcNAQEL
BQAwFDESMBAGA1UEAwwJbG9jYWxob3N0MB4XDTI1MDkyNDE3Mjc0MVoXDTI2MDky
NDE3Mjc0MVowFDESMBAGA1UEAwwJbG9jYWxob3N0MIIBIjANBgkqhkiG9w0BAQEF
AAOCAQ8AMIIBCgKCAQEAuw6RJuLWT2CH1bQ7PmKK5aS1REBdP7JjofEwAw2USYcl
mg0nJ/cgKbMSh8dyUdpe4dD7Yo7oYbcGNfcbSrsAcsO9hkE/rOMkx3yeHyO8mqwR
9NPWOYK3TAnauHQastxrUckXBV0K2SjULQtzR1+Jq7oEYGRoMW6wW563j/F+EtBR
K8VsVNysA3kiKIE4RF3hQA+zeGoj44iH8DlHx538N70BaU5M/MxZkpREcWHO1IK8
RY0yyHOmSo+1gLN35xFt3HQ245SguEWIlXk4xk7VwlJneZ7JmCcvcQWVldvp6KlM
p3A4FMaD3yNoYwzvXfSeGFj6skWNB4PnuoBenwEmEwIDAQABo1MwUTAdBgNVHQ4E
FgQUJivt9/PN99OgIEsuJBZd0CrwQxMwHwYDVR0jBBgwFoAUJivt9/PN99OgIEsu
JBZd0CrwQxMwDwYDVR0TAQH/BAUwAwEB/zANBgkqhkiG9w0BAQsFAAOCAQEARC4Q
0IPPV0niUCd2L9dAscM6L+vkA1MR+pG4GNHQY0HedgOu3MsI29BGvnAt18W6ebZt
gRUeV1kxZ5axSZBLpvQR8Ej7xT5/wBU2dA1cXyWUSIxokO71EHRes41/25XxMXVb
tSY4tr0lmdUh2K3zJOO9RhjQkHZMtUsjG0tkNiuz48e4u8jXQ458Ka/QzswTaTei
QiW6C4ecP1F5bwmK1SxH4H5yczlE7hl/M+pv6cbIh2N+Rg4k4xn+y+t8hyah4SEX
kYoyntq5RJnUch0IyA6lZsx6IIq4mTuVn7DNA/xGLDJJyE9ESfiQVTKAXmEh8z28
vW+pTZSnY5IE1Whjrw==
-----END CERTIFICATE-----
